; ModuleID = '26/845.c'
source_filename = "26/845.c"
target datalayout = "e-m:e-p270:32:32-p271:32:32-p272:64:64-i64:64-f80:128-n8:16:32:64-S128"
target triple = "x86_64-pc-linux-gnu"

; Function Attrs: noinline nounwind uwtable
define dso_local i32 @main() #0 {
  %1 = alloca i32, align 4
  %2 = alloca i32, align 4
  %3 = alloca i32, align 4
  %4 = alloca i32, align 4
  %5 = alloca i32, align 4
  %6 = alloca i32, align 4
  %7 = alloca i32, align 4
  %8 = alloca [101 x i8], align 16
  %9 = alloca [101 x i8], align 16
  store i32 0, i32* %1, align 4
  store i32 0, i32* %4, align 4
  %10 = getelementptr inbounds [101 x i8], [101 x i8]* %8, i64 0, i64 0
  %11 = call i32 (i8*, ...) bitcast (i32 (...)* @gets to i32 (i8*, ...)*)(i8* %10)
  %12 = getelementptr inbounds [101 x i8], [101 x i8]* %8, i64 0, i64 0
  %13 = call i64 @strlen(i8* %12) #3
  %14 = trunc i64 %13 to i32
  store i32 %14, i32* %7, align 4
  %15 = getelementptr inbounds [101 x i8], [101 x i8]* %8, i64 0, i64 0
  %16 = load i8, i8* %15, align 16
  %17 = getelementptr inbounds [101 x i8], [101 x i8]* %9, i64 0, i64 0
  store i8 %16, i8* %17, align 16
  store i32 1, i32* %2, align 4
  br label %18

18:                                               ; preds = %63, %0
  %19 = load i32, i32* %2, align 4
  %20 = load i32, i32* %7, align 4
  %21 = icmp sle i32 %19, %20
  br i1 %21, label %22, label %66

22:                                               ; preds = %18
  %23 = load i32, i32* %2, align 4
  %24 = sext i32 %23 to i64
  %25 = getelementptr inbounds [101 x i8], [101 x i8]* %8, i64 0, i64 %24
  %26 = load i8, i8* %25, align 1
  %27 = sext i8 %26 to i32
  %28 = icmp ne i32 %27, 32
  br i1 %28, label %37, label %29

29:                                               ; preds = %22
  %30 = load i32, i32* %2, align 4
  %31 = sub nsw i32 %30, 1
  %32 = sext i32 %31 to i64
  %33 = getelementptr inbounds [101 x i8], [101 x i8]* %8, i64 0, i64 %32
  %34 = load i8, i8* %33, align 1
  %35 = sext i8 %34 to i32
  %36 = icmp ne i32 %35, 32
  br i1 %36, label %37, label %51

37:                                               ; preds = %29, %22
  %38 = load i32, i32* %2, align 4
  %39 = load i32, i32* %7, align 4
  %40 = icmp slt i32 %38, %39
  br i1 %40, label %41, label %51

41:                                               ; preds = %37
  %42 = load i32, i32* %4, align 4
  %43 = add nsw i32 %42, 1
  store i32 %43, i32* %4, align 4
  %44 = load i32, i32* %2, align 4
  %45 = sext i32 %44 to i64
  %46 = getelementptr inbounds [101 x i8], [101 x i8]* %8, i64 0, i64 %45
  %47 = load i8, i8* %46, align 1
  %48 = load i32, i32* %4, align 4
  %49 = sext i32 %48 to i64
  %50 = getelementptr inbounds [101 x i8], [101 x i8]* %9, i64 0, i64 %49
  store i8 %47, i8* %50, align 1
  br label %62

51:                                               ; preds = %37, %29
  %52 = load i32, i32* %2, align 4
  %53 = load i32, i32* %7, align 4
  %54 = icmp eq i32 %52, %53
  br i1 %54, label %55, label %61

55:                                               ; preds = %51
  %56 = load i32, i32* %4, align 4
  %57 = add nsw i32 %56, 1
  store i32 %57, i32* %4, align 4
  %58 = load i32, i32* %4, align 4
  %59 = sext i32 %58 to i64
  %60 = getelementptr inbounds [101 x i8], [101 x i8]* %9, i64 0, i64 %59
  store i8 0, i8* %60, align 1
  br label %61

61:                                               ; preds = %55, %51
  br label %62

62:                                               ; preds = %61, %41
  br label %63

63:                                               ; preds = %62
  %64 = load i32, i32* %2, align 4
  %65 = add nsw i32 %64, 1
  store i32 %65, i32* %2, align 4
  br label %18

66:                                               ; preds = %18
  %67 = getelementptr inbounds [101 x i8], [101 x i8]* %9, i64 0, i64 0
  %68 = call i32 @puts(i8* %67)
  ret i32 0
}

declare dso_local i32 @gets(...) #1

; Function Attrs: nounwind readonly
declare dso_local i64 @strlen(i8*) #2

declare dso_local i32 @puts(i8*) #1


!llvm.module.flags = !{!0}
!llvm.ident = !{!1}

!0 = !{i32 1, !"wchar_size", i32 4}
!1 = !{!"clang version 10.0.0-4ubuntu1 "}
