; ModuleID = 'source-C-CXX/25/845.c'
source_filename = "source-C-CXX/25/845.c"
target datalayout = "e-m:e-p270:32:32-p271:32:32-p272:64:64-i64:64-f80:128-n8:16:32:64-S128"
target triple = "x86_64-pc-linux-gnu"

; Function Attrs: nounwind sspstrong uwtable
define dso_local i32 @main() local_unnamed_addr #0 {
  %1 = alloca [101 x i8], align 16
  %2 = alloca [101 x i8], align 16
  %3 = getelementptr inbounds [101 x i8], [101 x i8]* %1, i64 0, i64 0
  call void @llvm.lifetime.start.p0i8(i64 101, i8* nonnull %3) #5
  %4 = getelementptr inbounds [101 x i8], [101 x i8]* %2, i64 0, i64 0
  call void @llvm.lifetime.start.p0i8(i64 101, i8* nonnull %4) #5
  %5 = call i32 (i8*, ...) bitcast (i32 (...)* @gets to i32 (i8*, ...)*)(i8* nonnull %3) #5
  %6 = call i64 @strlen(i8* noundef nonnull %3) #6
  %7 = trunc i64 %6 to i32
  %8 = load i8, i8* %3, align 16, !tbaa !5
  store i8 %8, i8* %4, align 16, !tbaa !5
  %9 = icmp slt i32 %7, 1
  br i1 %9, label %42, label %10

10:                                               ; preds = %0
  %11 = shl i64 %6, 32
  %12 = ashr exact i64 %11, 32
  %13 = and i64 %6, 4294967295
  %14 = add i64 %6, 1
  %15 = and i64 %14, 4294967295
  br label %16

16:                                               ; preds = %10, %38
  %17 = phi i64 [ 1, %10 ], [ %40, %38 ]
  %18 = phi i32 [ 0, %10 ], [ %39, %38 ]
  %19 = getelementptr inbounds [101 x i8], [101 x i8]* %1, i64 0, i64 %17
  %20 = load i8, i8* %19, align 1, !tbaa !5
  %21 = icmp eq i8 %20, 32
  br i1 %21, label %22, label %29

22:                                               ; preds = %16
  %23 = add nsw i64 %17, -1
  %24 = getelementptr inbounds [101 x i8], [101 x i8]* %1, i64 0, i64 %23
  %25 = load i8, i8* %24, align 1, !tbaa !5
  %26 = icmp ne i8 %25, 32
  %27 = icmp slt i64 %17, %12
  %28 = select i1 %26, i1 %27, i1 false
  br i1 %28, label %33, label %31

29:                                               ; preds = %16
  %30 = icmp slt i64 %17, %12
  br i1 %30, label %33, label %31

31:                                               ; preds = %29, %22
  %32 = icmp eq i64 %17, %13
  br i1 %32, label %33, label %38

33:                                               ; preds = %31, %29, %22
  %34 = phi i8 [ %20, %22 ], [ %20, %29 ], [ 0, %31 ]
  %35 = add nsw i32 %18, 1
  %36 = sext i32 %35 to i64
  %37 = getelementptr inbounds [101 x i8], [101 x i8]* %2, i64 0, i64 %36
  store i8 %34, i8* %37, align 1, !tbaa !5
  br label %38

38:                                               ; preds = %33, %31
  %39 = phi i32 [ %18, %31 ], [ %35, %33 ]
  %40 = add nuw nsw i64 %17, 1
  %41 = icmp eq i64 %40, %15
  br i1 %41, label %42, label %16, !llvm.loop !8

42:                                               ; preds = %38, %0
  %43 = call i32 @puts(i8* nonnull %4)
  call void @llvm.lifetime.end.p0i8(i64 101, i8* nonnull %4) #5
  call void @llvm.lifetime.end.p0i8(i64 101, i8* nonnull %3) #5
  ret i32 0
}

; Function Attrs: argmemonly mustprogress nofree nosync nounwind willreturn
declare void @llvm.lifetime.start.p0i8(i64 immarg, i8* nocapture) #1

declare i32 @gets(...) local_unnamed_addr #2

; Function Attrs: argmemonly mustprogress nofree nounwind readonly willreturn
declare i64 @strlen(i8* nocapture) local_unnamed_addr #3

; Function Attrs: nofree nounwind
declare noundef i32 @puts(i8* nocapture noundef readonly) local_unnamed_addr #4

; Function Attrs: argmemonly mustprogress nofree nosync nounwind willreturn
declare void @llvm.lifetime.end.p0i8(i64 immarg, i8* nocapture) #1


!llvm.module.flags = !{!0, !1, !2, !3}
!llvm.ident = !{!4}

!0 = !{i32 1, !"wchar_size", i32 4}
!1 = !{i32 7, !"PIC Level", i32 2}
!2 = !{i32 7, !"PIE Level", i32 2}
!3 = !{i32 7, !"uwtable", i32 1}
!4 = !{!"clang version 13.0.0"}
!5 = !{!6, !6, i64 0}
!6 = !{!"omnipotent char", !7, i64 0}
!7 = !{!"Simple C/C++ TBAA"}
!8 = distinct !{!8, !9}
!9 = !{!"llvm.loop.mustprogress"}
